target datalayout = "e-m:e-p270:32:32-p271:32:32-p272:64:64-i64:64-i128:128-f80:128-n8:16:32:64-S128"
target triple = "x86_64-pc-linux-gnu"

%"struct.duckdb_hll::sdshdr8" = type { i8, i8, i8, [1 x i8] }
%"struct.duckdb_hll::sdshdr16" = type { i16, i16, i8, [1 x i8] }
%"struct.duckdb_hll::sdshdr32" = type <{ i32, i32, i8, [1 x i8] }>
%"struct.duckdb_hll::sdshdr64" = type <{ i64, i64, i8, [1 x i8] }>

; Function Attrs: inlinehint mustprogress nounwind uwtable
define internal void @_ZN10duckdb_hllL9sdssetlenEPcm(ptr noundef %0, i64 noundef %1) #2 {
  %3 = alloca ptr, align 8
  %4 = alloca i64, align 8
  %5 = alloca i8, align 1
  %6 = alloca ptr, align 8
  store ptr %0, ptr %3, align 8, !tbaa !12
  store i64 %1, ptr %4, align 8, !tbaa !7
  call void @llvm.lifetime.start.p0(i64 1, ptr %5) #11
  %7 = load ptr, ptr %3, align 8, !tbaa !12
  %8 = getelementptr inbounds i8, ptr %7, i64 -1
  %9 = load i8, ptr %8, align 1, !tbaa !9
  store i8 %9, ptr %5, align 1, !tbaa !9
  %10 = load i8, ptr %5, align 1, !tbaa !9
  %11 = zext i8 %10 to i32
  %12 = and i32 %11, 7
  switch i32 %12, label %44 [
    i32 0, label %13
    i32 1, label %21
    i32 2, label %27
    i32 3, label %33
    i32 4, label %39
  ]

13:                                               ; preds = %2
  call void @llvm.lifetime.start.p0(i64 8, ptr %6) #11
  %14 = load ptr, ptr %3, align 8, !tbaa !12
  %15 = getelementptr inbounds i8, ptr %14, i64 -1
  store ptr %15, ptr %6, align 8, !tbaa !12
  %16 = load i64, ptr %4, align 8, !tbaa !7
  %17 = shl i64 %16, 3
  %18 = or i64 0, %17
  %19 = trunc i64 %18 to i8
  %20 = load ptr, ptr %6, align 8, !tbaa !12
  store i8 %19, ptr %20, align 1, !tbaa !9
  call void @llvm.lifetime.end.p0(i64 8, ptr %6) #11
  br label %44

21:                                               ; preds = %2
  %22 = load i64, ptr %4, align 8, !tbaa !7
  %23 = trunc i64 %22 to i8
  %24 = load ptr, ptr %3, align 8, !tbaa !12
  %25 = getelementptr inbounds i8, ptr %24, i64 -4
  %26 = getelementptr inbounds nuw %"struct.duckdb_hll::sdshdr8", ptr %25, i32 0, i32 0
  store i8 %23, ptr %26, align 1, !tbaa !16
  br label %44

27:                                               ; preds = %2
  %28 = load i64, ptr %4, align 8, !tbaa !7
  %29 = trunc i64 %28 to i16
  %30 = load ptr, ptr %3, align 8, !tbaa !12
  %31 = getelementptr inbounds i8, ptr %30, i64 -6
  %32 = getelementptr inbounds nuw %"struct.duckdb_hll::sdshdr16", ptr %31, i32 0, i32 0
  store i16 %29, ptr %32, align 1, !tbaa !21
  br label %44

33:                                               ; preds = %2
  %34 = load i64, ptr %4, align 8, !tbaa !7
  %35 = trunc i64 %34 to i32
  %36 = load ptr, ptr %3, align 8, !tbaa !12
  %37 = getelementptr inbounds i8, ptr %36, i64 -10
  %38 = getelementptr inbounds nuw %"struct.duckdb_hll::sdshdr32", ptr %37, i32 0, i32 0
  store i32 %35, ptr %38, align 1, !tbaa !27
  br label %44

39:                                               ; preds = %2
  %40 = load i64, ptr %4, align 8, !tbaa !7
  %41 = load ptr, ptr %3, align 8, !tbaa !12
  %42 = getelementptr inbounds i8, ptr %41, i64 -18
  %43 = getelementptr inbounds nuw %"struct.duckdb_hll::sdshdr64", ptr %42, i32 0, i32 0
  store i64 %40, ptr %43, align 1, !tbaa !32
  br label %44

44:                                               ; preds = %2, %39, %33, %27, %21, %13
  call void @llvm.lifetime.end.p0(i64 1, ptr %5) #11
  ret void
}

; Function Attrs: inlinehint mustprogress nounwind uwtable
define internal noundef i64 @_ZN10duckdb_hllL6sdslenEPc(ptr noundef %0) #2 {
  %2 = alloca i64, align 8
  %3 = alloca ptr, align 8
  %4 = alloca i8, align 1
  %5 = alloca i32, align 4
  store ptr %0, ptr %3, align 8, !tbaa !12
  call void @llvm.lifetime.start.p0(i64 1, ptr %4) #11
  %6 = load ptr, ptr %3, align 8, !tbaa !12
  %7 = getelementptr inbounds i8, ptr %6, i64 -1
  %8 = load i8, ptr %7, align 1, !tbaa !9
  store i8 %8, ptr %4, align 1, !tbaa !9
  %9 = load i8, ptr %4, align 1, !tbaa !9
  %10 = zext i8 %9 to i32
  %11 = and i32 %10, 7
  switch i32 %11, label %40 [
    i32 0, label %12
    i32 1, label %17
    i32 2, label %23
    i32 3, label %29
    i32 4, label %35
  ]

12:                                               ; preds = %1
  %13 = load i8, ptr %4, align 1, !tbaa !9
  %14 = zext i8 %13 to i32
  %15 = ashr i32 %14, 3
  %16 = sext i32 %15 to i64
  store i64 %16, ptr %2, align 8
  store i32 1, ptr %5, align 4
  br label %41

17:                                               ; preds = %1
  %18 = load ptr, ptr %3, align 8, !tbaa !12
  %19 = getelementptr inbounds i8, ptr %18, i64 -4
  %20 = getelementptr inbounds nuw %"struct.duckdb_hll::sdshdr8", ptr %19, i32 0, i32 0
  %21 = load i8, ptr %20, align 1, !tbaa !16
  %22 = zext i8 %21 to i64
  store i64 %22, ptr %2, align 8
  store i32 1, ptr %5, align 4
  br label %41

23:                                               ; preds = %1
  %24 = load ptr, ptr %3, align 8, !tbaa !12
  %25 = getelementptr inbounds i8, ptr %24, i64 -6
  %26 = getelementptr inbounds nuw %"struct.duckdb_hll::sdshdr16", ptr %25, i32 0, i32 0
  %27 = load i16, ptr %26, align 1, !tbaa !21
  %28 = zext i16 %27 to i64
  store i64 %28, ptr %2, align 8
  store i32 1, ptr %5, align 4
  br label %41

29:                                               ; preds = %1
  %30 = load ptr, ptr %3, align 8, !tbaa !12
  %31 = getelementptr inbounds i8, ptr %30, i64 -10
  %32 = getelementptr inbounds nuw %"struct.duckdb_hll::sdshdr32", ptr %31, i32 0, i32 0
  %33 = load i32, ptr %32, align 1, !tbaa !27
  %34 = zext i32 %33 to i64
  store i64 %34, ptr %2, align 8
  store i32 1, ptr %5, align 4
  br label %41

35:                                               ; preds = %1
  %36 = load ptr, ptr %3, align 8, !tbaa !12
  %37 = getelementptr inbounds i8, ptr %36, i64 -18
  %38 = getelementptr inbounds nuw %"struct.duckdb_hll::sdshdr64", ptr %37, i32 0, i32 0
  %39 = load i64, ptr %38, align 1, !tbaa !32
  store i64 %39, ptr %2, align 8
  store i32 1, ptr %5, align 4
  br label %41

40:                                               ; preds = %1
  store i64 0, ptr %2, align 8
  store i32 1, ptr %5, align 4
  br label %41

41:                                               ; preds = %40, %35, %29, %23, %17, %12
  call void @llvm.lifetime.end.p0(i64 1, ptr %4) #11
  %42 = load i64, ptr %2, align 8
  ret i64 %42
}

; Function Attrs: mustprogress uwtable
define void @_ZN10duckdb_hll8sdsrangeEPcll(ptr noundef %0, i64 noundef %1, i64 noundef %2) #0 {
  %4 = alloca ptr, align 8
  %5 = alloca i64, align 8
  %6 = alloca i64, align 8
  %7 = alloca i64, align 8
  %8 = alloca i64, align 8
  %9 = alloca i32, align 4
  store ptr %0, ptr %4, align 8, !tbaa !12
  store i64 %1, ptr %5, align 8, !tbaa !7
  store i64 %2, ptr %6, align 8, !tbaa !7
  call void @llvm.lifetime.start.p0(i64 8, ptr %7) #11
  call void @llvm.lifetime.start.p0(i64 8, ptr %8) #11
  %10 = load ptr, ptr %4, align 8, !tbaa !12
  %11 = call noundef i64 @_ZN10duckdb_hllL6sdslenEPc(ptr noundef %10)
  store i64 %11, ptr %8, align 8, !tbaa !7
  %12 = load i64, ptr %8, align 8, !tbaa !7
  %13 = icmp eq i64 %12, 0
  br i1 %13, label %14, label %15

14:                                               ; preds = %3
  store i32 1, ptr %9, align 4
  br label %95

15:                                               ; preds = %3
  %16 = load i64, ptr %5, align 8, !tbaa !7
  %17 = icmp slt i64 %16, 0
  br i1 %17, label %18, label %26

18:                                               ; preds = %15
  %19 = load i64, ptr %8, align 8, !tbaa !7
  %20 = load i64, ptr %5, align 8, !tbaa !7
  %21 = add i64 %19, %20
  store i64 %21, ptr %5, align 8, !tbaa !7
  %22 = load i64, ptr %5, align 8, !tbaa !7
  %23 = icmp slt i64 %22, 0
  br i1 %23, label %24, label %25

24:                                               ; preds = %18
  store i64 0, ptr %5, align 8, !tbaa !7
  br label %25

25:                                               ; preds = %24, %18
  br label %26

26:                                               ; preds = %25, %15
  %27 = load i64, ptr %6, align 8, !tbaa !7
  %28 = icmp slt i64 %27, 0
  br i1 %28, label %29, label %37

29:                                               ; preds = %26
  %30 = load i64, ptr %8, align 8, !tbaa !7
  %31 = load i64, ptr %6, align 8, !tbaa !7
  %32 = add i64 %30, %31
  store i64 %32, ptr %6, align 8, !tbaa !7
  %33 = load i64, ptr %6, align 8, !tbaa !7
  %34 = icmp slt i64 %33, 0
  br i1 %34, label %35, label %36

35:                                               ; preds = %29
  store i64 0, ptr %6, align 8, !tbaa !7
  br label %36

36:                                               ; preds = %35, %29
  br label %37

37:                                               ; preds = %36, %26
  %38 = load i64, ptr %5, align 8, !tbaa !7
  %39 = load i64, ptr %6, align 8, !tbaa !7
  %40 = icmp sgt i64 %38, %39
  br i1 %40, label %41, label %42

41:                                               ; preds = %37
  br label %47

42:                                               ; preds = %37
  %43 = load i64, ptr %6, align 8, !tbaa !7
  %44 = load i64, ptr %5, align 8, !tbaa !7
  %45 = sub nsw i64 %43, %44
  %46 = add nsw i64 %45, 1
  br label %47

47:                                               ; preds = %42, %41
  %48 = phi i64 [ 0, %41 ], [ %46, %42 ]
  store i64 %48, ptr %7, align 8, !tbaa !7
  %49 = load i64, ptr %7, align 8, !tbaa !7
  %50 = icmp ne i64 %49, 0
  br i1 %50, label %51, label %76

51:                                               ; preds = %47
  %52 = load i64, ptr %5, align 8, !tbaa !7
  %53 = load i64, ptr %8, align 8, !tbaa !7
  %54 = icmp sge i64 %52, %53
  br i1 %54, label %55, label %56

55:                                               ; preds = %51
  store i64 0, ptr %7, align 8, !tbaa !7
  br label %75

56:                                               ; preds = %51
  %57 = load i64, ptr %6, align 8, !tbaa !7
  %58 = load i64, ptr %8, align 8, !tbaa !7
  %59 = icmp sge i64 %57, %58
  br i1 %59, label %60, label %74

60:                                               ; preds = %56
  %61 = load i64, ptr %8, align 8, !tbaa !7
  %62 = sub i64 %61, 1
  store i64 %62, ptr %6, align 8, !tbaa !7
  %63 = load i64, ptr %5, align 8, !tbaa !7
  %64 = load i64, ptr %6, align 8, !tbaa !7
  %65 = icmp sgt i64 %63, %64
  br i1 %65, label %66, label %67

66:                                               ; preds = %60
  br label %72

67:                                               ; preds = %60
  %68 = load i64, ptr %6, align 8, !tbaa !7
  %69 = load i64, ptr %5, align 8, !tbaa !7
  %70 = sub nsw i64 %68, %69
  %71 = add nsw i64 %70, 1
  br label %72

72:                                               ; preds = %67, %66
  %73 = phi i64 [ 0, %66 ], [ %71, %67 ]
  store i64 %73, ptr %7, align 8, !tbaa !7
  br label %74

74:                                               ; preds = %72, %56
  br label %75

75:                                               ; preds = %74, %55
  br label %77

76:                                               ; preds = %47
  store i64 0, ptr %5, align 8, !tbaa !7
  br label %77

77:                                               ; preds = %76, %75
  %78 = load i64, ptr %5, align 8, !tbaa !7
  %79 = icmp ne i64 %78, 0
  br i1 %79, label %80, label %89

80:                                               ; preds = %77
  %81 = load i64, ptr %7, align 8, !tbaa !7
  %82 = icmp ne i64 %81, 0
  br i1 %82, label %83, label %89

83:                                               ; preds = %80
  %84 = load ptr, ptr %4, align 8, !tbaa !12
  %85 = load ptr, ptr %4, align 8, !tbaa !12
  %86 = load i64, ptr %5, align 8, !tbaa !7
  %87 = getelementptr inbounds i8, ptr %85, i64 %86
  %88 = load i64, ptr %7, align 8, !tbaa !7
  call void @llvm.memmove.p0.p0.i64(ptr align 1 %84, ptr align 1 %87, i64 %88, i1 false)
  br label %89

89:                                               ; preds = %83, %80, %77
  %90 = load ptr, ptr %4, align 8, !tbaa !12
  %91 = load i64, ptr %7, align 8, !tbaa !7
  %92 = getelementptr inbounds nuw i8, ptr %90, i64 %91
  store i8 0, ptr %92, align 1, !tbaa !9
  %93 = load ptr, ptr %4, align 8, !tbaa !12
  %94 = load i64, ptr %7, align 8, !tbaa !7
  call void @_ZN10duckdb_hllL9sdssetlenEPcm(ptr noundef %93, i64 noundef %94)
  store i32 0, ptr %9, align 4
  br label %95

95:                                               ; preds = %89, %14
  call void @llvm.lifetime.end.p0(i64 8, ptr %8) #11
  call void @llvm.lifetime.end.p0(i64 8, ptr %7) #11
  %96 = load i32, ptr %9, align 4
  switch i32 %96, label %98 [
    i32 0, label %97
    i32 1, label %97
  ]

97:                                               ; preds = %95, %95
  ret void

98:                                               ; preds = %95
  unreachable
}