; Function Attrs: mustprogress nofree norecurse nosync nounwind willreturn memory(argmem: readwrite) uwtable
define void @_ZN10duckdb_hll8sdsrangeEPcll(ptr noundef captures(none) %0, i64 noundef %1, i64 noundef %2) local_unnamed_addr #10 {
  %4 = getelementptr inbounds i8, ptr %0, i64 -1
  %5 = load i8, ptr %4, align 1, !tbaa !20
  %6 = zext i8 %5 to i32
  %7 = and i32 %6, 7
  switch i32 %7, label %_ZN10duckdb_hllL9sdssetlenEPcm.exit [
    i32 0, label %8
    i32 1, label %11
    i32 2, label %15
    i32 3, label %19
    i32 4, label %23
  ]

8:                                                ; preds = %3
  %9 = lshr i32 %6, 3
  %10 = zext nneg i32 %9 to i64
  br label %_ZN10duckdb_hllL6sdslenEPc.exit

11:                                               ; preds = %3
  %12 = getelementptr inbounds i8, ptr %0, i64 -4
  %13 = load i8, ptr %12, align 1, !tbaa !3
  %14 = zext i8 %13 to i64
  br label %_ZN10duckdb_hllL6sdslenEPc.exit

15:                                               ; preds = %3
  %16 = getelementptr inbounds i8, ptr %0, i64 -6
  %17 = load i16, ptr %16, align 1, !tbaa !8
  %18 = zext i16 %17 to i64
  br label %_ZN10duckdb_hllL6sdslenEPc.exit

19:                                               ; preds = %3
  %20 = getelementptr inbounds i8, ptr %0, i64 -10
  %21 = load i32, ptr %20, align 1, !tbaa !12
  %22 = zext i32 %21 to i64
  br label %_ZN10duckdb_hllL6sdslenEPc.exit

23:                                               ; preds = %3
  %24 = getelementptr inbounds i8, ptr %0, i64 -18
  %25 = load i64, ptr %24, align 1, !tbaa !16
  br label %_ZN10duckdb_hllL6sdslenEPc.exit

_ZN10duckdb_hllL6sdslenEPc.exit:                  ; preds = %8, %11, %15, %19, %23
  %.0.i = phi i64 [ %25, %23 ], [ %22, %19 ], [ %18, %15 ], [ %14, %11 ], [ %10, %8 ]
  %26 = icmp eq i64 %.0.i, 0
  br i1 %26, label %_ZN10duckdb_hllL9sdssetlenEPcm.exit, label %27

27:                                               ; preds = %_ZN10duckdb_hllL6sdslenEPc.exit
  %28 = icmp slt i64 %1, 0
  %29 = add i64 %.0.i, %1
  %spec.store.select = tail call i64 @llvm.smax.i64(i64 %29, i64 0)
  %.0 = select i1 %28, i64 %spec.store.select, i64 %1
  %30 = icmp slt i64 %2, 0
  %31 = add i64 %.0.i, %2
  %spec.store.select1 = tail call i64 @llvm.smax.i64(i64 %31, i64 0)
  %.036 = select i1 %30, i64 %spec.store.select1, i64 %2
  %32 = icmp samesign ugt i64 %.0, %.036
  %reass.sub = sub nsw i64 %.036, %.0
  %33 = add i64 %reass.sub, 1
  %34 = select i1 %32, i64 0, i64 %33
  %.not = icmp ne i64 %34, 0
  %.not44 = icmp slt i64 %.0, %.0.i
  %or.cond51 = and i1 %.not44, %.not
  br i1 %or.cond51, label %35, label %.thread

35:                                               ; preds = %27
  %.not45 = icmp samesign ult i64 %.036, %.0.i
  %36 = add nsw i64 %.0.i, -1
  %37 = icmp samesign ugt i64 %.0, %36
  %38 = sub nsw i64 %.0.i, %.0
  %39 = select i1 %37, i64 0, i64 %38
  %.035 = select i1 %.not45, i64 %34, i64 %39
  %40 = icmp ne i64 %.0, 0
  %41 = icmp ne i64 %.035, 0
  %or.cond = select i1 %40, i1 %41, i1 false
  br i1 %or.cond, label %42, label %.thread

42:                                               ; preds = %35
  %43 = getelementptr inbounds nuw i8, ptr %0, i64 %.0
  tail call void @llvm.memmove.p0.p0.i64(ptr nonnull align 1 %0, ptr nonnull align 1 %43, i64 %.035, i1 false)
  br label %.thread

.thread:                                          ; preds = %27, %42, %35
  %.03550 = phi i64 [ %.035, %42 ], [ %.035, %35 ], [ 0, %27 ]
  %44 = getelementptr inbounds nuw i8, ptr %0, i64 %.03550
  store i8 0, ptr %44, align 1, !tbaa !20
  %45 = and i8 %5, 7
  switch i8 %45, label %_ZN10duckdb_hllL9sdssetlenEPcm.exit [
    i8 0, label %46
    i8 1, label %48
    i8 2, label %51
    i8 3, label %54
    i8 4, label %57
  ]

46:                                               ; preds = %.thread
  %.tr.i = trunc i64 %.03550 to i8
  %47 = shl i8 %.tr.i, 3
  store i8 %47, ptr %4, align 1, !tbaa !20
  br label %_ZN10duckdb_hllL9sdssetlenEPcm.exit

48:                                               ; preds = %.thread
  %49 = trunc i64 %.03550 to i8
  %50 = getelementptr inbounds i8, ptr %0, i64 -4
  store i8 %49, ptr %50, align 1, !tbaa !3
  br label %_ZN10duckdb_hllL9sdssetlenEPcm.exit

51:                                               ; preds = %.thread
  %52 = trunc i64 %.03550 to i16
  %53 = getelementptr inbounds i8, ptr %0, i64 -6
  store i16 %52, ptr %53, align 1, !tbaa !8
  br label %_ZN10duckdb_hllL9sdssetlenEPcm.exit

54:                                               ; preds = %.thread
  %55 = trunc i64 %.03550 to i32
  %56 = getelementptr inbounds i8, ptr %0, i64 -10
  store i32 %55, ptr %56, align 1, !tbaa !12
  br label %_ZN10duckdb_hllL9sdssetlenEPcm.exit

57:                                               ; preds = %.thread
  %58 = getelementptr inbounds i8, ptr %0, i64 -18
  store i64 %.03550, ptr %58, align 1, !tbaa !16
  br label %_ZN10duckdb_hllL9sdssetlenEPcm.exit

_ZN10duckdb_hllL9sdssetlenEPcm.exit:              ; preds = %3, %57, %54, %51, %48, %46, %.thread, %_ZN10duckdb_hllL6sdslenEPc.exit
  ret void
}